(lp0
S'poi'
p1
aS'exercised_stock_options'
p2
aS'total_stock_value'
p3
aS'bonus'
p4
aS'salary'
p5
aS'fraction_to_poi'
p6
aS'deferred_income'
p7
aS'long_term_incentive'
p8
aS'restricted_stock'
p9
aS'total_payments'
p10
aS'shared_receipt_with_poi'
p11
aS'expenses'
p12
aS'from_poi_to_this_person'
p13
aS'other'
p14
a.